; Function Attrs: nounwind uwtable
define dso_local ptr @abi_arg_new_direct_coerce_int_ext(ptr nocapture noundef readonly %0) local_unnamed_addr #2 {
  %2 = tail call ptr @calloc_arena(i64 noundef 32) #5
  %3 = getelementptr inbounds i8, ptr %2, i64 4
  %4 = load i8, ptr %3, align 4
  %5 = and i8 %4, -64
  %6 = or disjoint i8 %5, 3
  store i8 %6, ptr %3, align 4
  %7 = getelementptr inbounds i8, ptr %0, i64 8
  %8 = load ptr, ptr %7, align 8
  %9 = getelementptr inbounds i8, ptr %2, i64 8
  store ptr %8, ptr %9, align 8
  %10 = load i32, ptr %0, align 8
  %11 = add i32 %10, -3
  %or.cond.i = icmp ult i32 %11, 5
  br i1 %or.cond.i, label %abi_arg_new_direct_coerce_int_ext_by_reg.exit, label %12

12:                                               ; preds = %1
  %.not.i = icmp eq i32 %10, 37
  br i1 %.not.i, label %13, label %.critedge16.i

13:                                               ; preds = %12
  %14 = getelementptr inbounds i8, ptr %0, i64 56
  %15 = load ptr, ptr %14, align 8
  %16 = load i32, ptr %15, align 8
  %17 = add i32 %16, -3
  %18 = icmp ult i32 %17, 5
  br i1 %18, label %abi_arg_new_direct_coerce_int_ext_by_reg.exit, label %.critedge16.i

.critedge16.i:                                    ; preds = %13, %12
  br label %abi_arg_new_direct_coerce_int_ext_by_reg.exit

abi_arg_new_direct_coerce_int_ext_by_reg.exit:    ; preds = %1, %13, %.critedge16.i
  %.sink17.i = phi i8 [ 2, %.critedge16.i ], [ 4, %1 ], [ 4, %13 ]
  %19 = getelementptr inbounds i8, ptr %2, i64 5
  %20 = load i8, ptr %19, align 1
  %.masked.i = and i8 %20, -2
  %21 = or i8 %.masked.i, %.sink17.i
  store i8 %21, ptr %19, align 1
  ret ptr %2
}